HELLO
bobbin: ILLEGAL OP (--die-on-brk)
bobbin:   (CPU state follows.)
Instr #: 76466
ACC: 00  X: 03  Y: 1C  SP: F4           N    V   [U]  [B]   D    I    Z    C 
STK: $1F1:  FD  8D  09  (03)  84  FF  22  D8  C1  F1  00  01  01
0317:   92          ???              
--------------------
 TRACE:
--------------------


~~~ TRACING STARTED: Requested by user ~~~
                                                                          76272
ACC: FF  X: 00  Y: 00  SP: F4           N    V   [U]  [B]   D    I    Z    C 
STK: $1F1:  FC  00  BB  (FE)  84  FF  22  D8  C1  F1  00  01  01
0300:   A2 00       LDX #$00         
                                                                          76273
ACC: FF  X: 00  Y: 00  SP: F4           N    V   [U]  [B]   D    I   [Z]   C 
STK: $1F1:  FC  00  BB  (FE)  84  FF  22  D8  C1  F1  00  01  01
0302:   BD 1D 03    LDA $031D,x      031D:  C8 C5 CC CC CF
                                                                          76274
ACC: C8  X: 00  Y: 00  SP: F4          [N]   V   [U]  [B]   D    I    Z    C 
STK: $1F1:  FC  00  BB  (FE)  84  FF  22  D8  C1  F1  00  01  01
0305:   F0 06       BEQ $030D        
                                                                          76275
ACC: C8  X: 00  Y: 00  SP: F4          [N]   V   [U]  [B]   D    I    Z    C 
STK: $1F1:  FC  00  BB  (FE)  84  FF  22  D8  C1  F1  00  01  01
0307:   20 ED FD    JSR $FDED        FDED:  6C 36 00 C9 A0
w @001F4 $01F4 :03 MAIN
w @001F3 $01F3 :09 MAIN
                                                                          76276
ACC: C8  X: 00  Y: 00  SP: F2          [N]   V   [U]  [B]   D    I    Z    C 
STK: $1EF:  0F  26  FC  (00)  09  03  84  FF  22  D8  C1  F1  00
FDED:   6C 36 00    JMP ($0036)      0036:  F0 FD 1B FD 00
                                                                          76277
ACC: C8  X: 00  Y: 00  SP: F2          [N]   V   [U]  [B]   D    I    Z    C 
STK: $1EF:  0F  26  FC  (00)  09  03  84  FF  22  D8  C1  F1  00
FDF0:   C9 A0       CMP #$A0         
                                                                          76278
ACC: C8  X: 00  Y: 00  SP: F2           N    V   [U]  [B]   D    I    Z   [C]
STK: $1EF:  0F  26  FC  (00)  09  03  84  FF  22  D8  C1  F1  00
FDF2:   90 02       BCC $FDF6        
                                                                          76279
ACC: C8  X: 00  Y: 00  SP: F2           N    V   [U]  [B]   D    I    Z   [C]
STK: $1EF:  0F  26  FC  (00)  09  03  84  FF  22  D8  C1  F1  00
FDF4:   25 32       AND $32          0032:  FF AA 04 28 F0
                                                                          76280
ACC: C8  X: 00  Y: 00  SP: F2          [N]   V   [U]  [B]   D    I    Z   [C]
STK: $1EF:  0F  26  FC  (00)  09  03  84  FF  22  D8  C1  F1  00
FDF6:   84 35       STY $35          0035:  28 F0 FD 1B FD
w @00035 $0035 :00 MAIN
                                                                          76281
ACC: C8  X: 00  Y: 00  SP: F2          [N]   V   [U]  [B]   D    I    Z   [C]
STK: $1EF:  0F  26  FC  (00)  09  03  84  FF  22  D8  C1  F1  00
FDF8:   48          PHA              
w @001F2 $01F2 :C8 MAIN
                                                                          76282
ACC: C8  X: 00  Y: 00  SP: F1          [N]   V   [U]  [B]   D    I    Z   [C]
STK: $1EE:  26  0F  26  (FC)  C8  09  03  84  FF  22  D8  C1  F1
FDF9:   20 78 FB    JSR $FB78        FB78:  C9 8D D0 18 AC
w @001F1 $01F1 :FD MAIN
w @001F0 $01F0 :FB MAIN
                                                                          76283
ACC: C8  X: 00  Y: 00  SP: EF          [N]   V   [U]  [B]   D    I    Z   [C]
STK: $1EC:  00  0E  26  (0F)  FB  FD  C8  09  03  84  FF  22  D8
FB78:   C9 8D       CMP #$8D         
                                                                          76284
ACC: C8  X: 00  Y: 00  SP: EF           N    V   [U]  [B]   D    I    Z   [C]
STK: $1EC:  00  0E  26  (0F)  FB  FD  C8  09  03  84  FF  22  D8
FB7A:   D0 18       BNE $FB94        
                                                                          76285
ACC: C8  X: 00  Y: 00  SP: EF           N    V   [U]  [B]   D    I    Z   [C]
STK: $1EC:  00  0E  26  (0F)  FB  FD  C8  09  03  84  FF  22  D8
FB94:   4C FD FB    JMP $FBFD        FBFD:  C9 A0 B0 EF A8
                                                                          76286
ACC: C8  X: 00  Y: 00  SP: EF           N    V   [U]  [B]   D    I    Z   [C]
STK: $1EC:  00  0E  26  (0F)  FB  FD  C8  09  03  84  FF  22  D8
FBFD:   C9 A0       CMP #$A0         
                                                                          76287
ACC: C8  X: 00  Y: 00  SP: EF           N    V   [U]  [B]   D    I    Z   [C]
STK: $1EC:  00  0E  26  (0F)  FB  FD  C8  09  03  84  FF  22  D8
FBFF:   B0 EF       BCS $FBF0        
                                                                          76288
ACC: C8  X: 00  Y: 00  SP: EF           N    V   [U]  [B]   D    I    Z   [C]
STK: $1EC:  00  0E  26  (0F)  FB  FD  C8  09  03  84  FF  22  D8
FBF0:   A4 24       LDY $24          0024:  00 0F 00 00 A8
                                                                          76289
ACC: C8  X: 00  Y: 00  SP: EF           N    V   [U]  [B]   D    I   [Z]  [C]
STK: $1EC:  00  0E  26  (0F)  FB  FD  C8  09  03  84  FF  22  D8
FBF2:   91 28       STA ($28),y      28: A8 07   07A8:  A0 A0 A0 A0 A0
w @007A8 $07A8 :C8 MAIN
                                                                          76290
ACC: C8  X: 00  Y: 00  SP: EF           N    V   [U]  [B]   D    I   [Z]  [C]
STK: $1EC:  00  0E  26  (0F)  FB  FD  C8  09  03  84  FF  22  D8
FBF4:   E6 24       INC $24          0024:  00 0F 00 00 A8
w @00024 $0024 :00 MAIN
w @00024 $0024 :01 MAIN
                                                                          76291
ACC: C8  X: 00  Y: 00  SP: EF           N    V   [U]  [B]   D    I    Z   [C]
STK: $1EC:  00  0E  26  (0F)  FB  FD  C8  09  03  84  FF  22  D8
FBF6:   A5 24       LDA $24          0024:  01 0F 00 00 A8
                                                                          76292
ACC: 01  X: 00  Y: 00  SP: EF           N    V   [U]  [B]   D    I    Z   [C]
STK: $1EC:  00  0E  26  (0F)  FB  FD  C8  09  03  84  FF  22  D8
FBF8:   C5 21       CMP $21          0021:  28 00 18 01 0F
                                                                          76293
ACC: 01  X: 00  Y: 00  SP: EF          [N]   V   [U]  [B]   D    I    Z    C 
STK: $1EC:  00  0E  26  (0F)  FB  FD  C8  09  03  84  FF  22  D8
FBFA:   B0 66       BCS $FC62        
                                                                          76294
ACC: 01  X: 00  Y: 00  SP: EF          [N]   V   [U]  [B]   D    I    Z    C 
STK: $1EC:  00  0E  26  (0F)  FB  FD  C8  09  03  84  FF  22  D8
FBFC:   60          RTS              
                                                                          76295
ACC: 01  X: 00  Y: 00  SP: F1          [N]   V   [U]  [B]   D    I    Z    C 
STK: $1EE:  26  0F  FB  (FD)  C8  09  03  84  FF  22  D8  C1  F1
FDFC:   68          PLA              
                                                                          76296
ACC: C8  X: 00  Y: 00  SP: F2          [N]   V   [U]  [B]   D    I    Z    C 
STK: $1EF:  0F  FB  FD  (C8)  09  03  84  FF  22  D8  C1  F1  00
FDFD:   A4 35       LDY $35          0035:  00 F0 FD 1B FD
                                                                          76297
ACC: C8  X: 00  Y: 00  SP: F2           N    V   [U]  [B]   D    I   [Z]   C 
STK: $1EF:  0F  FB  FD  (C8)  09  03  84  FF  22  D8  C1  F1  00
FDFF:   60          RTS              
                                                                          76298
ACC: C8  X: 00  Y: 00  SP: F4           N    V   [U]  [B]   D    I   [Z]   C 
STK: $1F1:  FD  C8  09  (03)  84  FF  22  D8  C1  F1  00  01  01
030A:   E8          INX              
                                                                          76299
ACC: C8  X: 01  Y: 00  SP: F4           N    V   [U]  [B]   D    I    Z    C 
STK: $1F1:  FD  C8  09  (03)  84  FF  22  D8  C1  F1  00  01  01
030B:   D0 F5       BNE $0302        
                                                                          76300
ACC: C8  X: 01  Y: 00  SP: F4           N    V   [U]  [B]   D    I    Z    C 
STK: $1F1:  FD  C8  09  (03)  84  FF  22  D8  C1  F1  00  01  01
0302:   BD 1D 03    LDA $031D,x      031E:  C5 CC CC CF 8D
                                                                          76301
ACC: C5  X: 01  Y: 00  SP: F4          [N]   V   [U]  [B]   D    I    Z    C 
STK: $1F1:  FD  C8  09  (03)  84  FF  22  D8  C1  F1  00  01  01
0305:   F0 06       BEQ $030D        
                                                                          76302
ACC: C5  X: 01  Y: 00  SP: F4          [N]   V   [U]  [B]   D    I    Z    C 
STK: $1F1:  FD  C8  09  (03)  84  FF  22  D8  C1  F1  00  01  01
0307:   20 ED FD    JSR $FDED        FDED:  6C 36 00 C9 A0
w @001F4 $01F4 :03 MAIN
w @001F3 $01F3 :09 MAIN
                                                                          76303
ACC: C5  X: 01  Y: 00  SP: F2          [N]   V   [U]  [B]   D    I    Z    C 
STK: $1EF:  0F  FB  FD  (C8)  09  03  84  FF  22  D8  C1  F1  00
FDED:   6C 36 00    JMP ($0036)      0036:  F0 FD 1B FD 00
                                                                          76304
ACC: C5  X: 01  Y: 00  SP: F2          [N]   V   [U]  [B]   D    I    Z    C 
STK: $1EF:  0F  FB  FD  (C8)  09  03  84  FF  22  D8  C1  F1  00
FDF0:   C9 A0       CMP #$A0         
                                                                          76305
ACC: C5  X: 01  Y: 00  SP: F2           N    V   [U]  [B]   D    I    Z   [C]
STK: $1EF:  0F  FB  FD  (C8)  09  03  84  FF  22  D8  C1  F1  00
FDF2:   90 02       BCC $FDF6        
                                                                          76306
ACC: C5  X: 01  Y: 00  SP: F2           N    V   [U]  [B]   D    I    Z   [C]
STK: $1EF:  0F  FB  FD  (C8)  09  03  84  FF  22  D8  C1  F1  00
FDF4:   25 32       AND $32          0032:  FF AA 04 00 F0
                                                                          76307
ACC: C5  X: 01  Y: 00  SP: F2          [N]   V   [U]  [B]   D    I    Z   [C]
STK: $1EF:  0F  FB  FD  (C8)  09  03  84  FF  22  D8  C1  F1  00
FDF6:   84 35       STY $35          0035:  00 F0 FD 1B FD
w @00035 $0035 :00 MAIN
                                                                          76308
ACC: C5  X: 01  Y: 00  SP: F2          [N]   V   [U]  [B]   D    I    Z   [C]
STK: $1EF:  0F  FB  FD  (C8)  09  03  84  FF  22  D8  C1  F1  00
FDF8:   48          PHA              
w @001F2 $01F2 :C5 MAIN
                                                                          76309
ACC: C5  X: 01  Y: 00  SP: F1          [N]   V   [U]  [B]   D    I    Z   [C]
STK: $1EE:  26  0F  FB  (FD)  C5  09  03  84  FF  22  D8  C1  F1
FDF9:   20 78 FB    JSR $FB78        FB78:  C9 8D D0 18 AC
w @001F1 $01F1 :FD MAIN
w @001F0 $01F0 :FB MAIN
                                                                          76310
ACC: C5  X: 01  Y: 00  SP: EF          [N]   V   [U]  [B]   D    I    Z   [C]
STK: $1EC:  00  0E  26  (0F)  FB  FD  C5  09  03  84  FF  22  D8
FB78:   C9 8D       CMP #$8D         
                                                                          76311
ACC: C5  X: 01  Y: 00  SP: EF           N    V   [U]  [B]   D    I    Z   [C]
STK: $1EC:  00  0E  26  (0F)  FB  FD  C5  09  03  84  FF  22  D8
FB7A:   D0 18       BNE $FB94        
                                                                          76312
ACC: C5  X: 01  Y: 00  SP: EF           N    V   [U]  [B]   D    I    Z   [C]
STK: $1EC:  00  0E  26  (0F)  FB  FD  C5  09  03  84  FF  22  D8
FB94:   4C FD FB    JMP $FBFD        FBFD:  C9 A0 B0 EF A8
                                                                          76313
ACC: C5  X: 01  Y: 00  SP: EF           N    V   [U]  [B]   D    I    Z   [C]
STK: $1EC:  00  0E  26  (0F)  FB  FD  C5  09  03  84  FF  22  D8
FBFD:   C9 A0       CMP #$A0         
                                                                          76314
ACC: C5  X: 01  Y: 00  SP: EF           N    V   [U]  [B]   D    I    Z   [C]
STK: $1EC:  00  0E  26  (0F)  FB  FD  C5  09  03  84  FF  22  D8
FBFF:   B0 EF       BCS $FBF0        
                                                                          76315
ACC: C5  X: 01  Y: 00  SP: EF           N    V   [U]  [B]   D    I    Z   [C]
STK: $1EC:  00  0E  26  (0F)  FB  FD  C5  09  03  84  FF  22  D8
FBF0:   A4 24       LDY $24          0024:  01 0F 00 00 A8
                                                                          76316
ACC: C5  X: 01  Y: 01  SP: EF           N    V   [U]  [B]   D    I    Z   [C]
STK: $1EC:  00  0E  26  (0F)  FB  FD  C5  09  03  84  FF  22  D8
FBF2:   91 28       STA ($28),y      28: A8 07   07A9:  A0 A0 A0 A0 A0
w @007A9 $07A9 :C5 MAIN
                                                                          76317
ACC: C5  X: 01  Y: 01  SP: EF           N    V   [U]  [B]   D    I    Z   [C]
STK: $1EC:  00  0E  26  (0F)  FB  FD  C5  09  03  84  FF  22  D8
FBF4:   E6 24       INC $24          0024:  01 0F 00 00 A8
w @00024 $0024 :01 MAIN
w @00024 $0024 :02 MAIN
                                                                          76318
ACC: C5  X: 01  Y: 01  SP: EF           N    V   [U]  [B]   D    I    Z   [C]
STK: $1EC:  00  0E  26  (0F)  FB  FD  C5  09  03  84  FF  22  D8
FBF6:   A5 24       LDA $24          0024:  02 0F 00 00 A8
                                                                          76319
ACC: 02  X: 01  Y: 01  SP: EF           N    V   [U]  [B]   D    I    Z   [C]
STK: $1EC:  00  0E  26  (0F)  FB  FD  C5  09  03  84  FF  22  D8
FBF8:   C5 21       CMP $21          0021:  28 00 18 02 0F
                                                                          76320
ACC: 02  X: 01  Y: 01  SP: EF          [N]   V   [U]  [B]   D    I    Z    C 
STK: $1EC:  00  0E  26  (0F)  FB  FD  C5  09  03  84  FF  22  D8
FBFA:   B0 66       BCS $FC62        
                                                                          76321
ACC: 02  X: 01  Y: 01  SP: EF          [N]   V   [U]  [B]   D    I    Z    C 
STK: $1EC:  00  0E  26  (0F)  FB  FD  C5  09  03  84  FF  22  D8
FBFC:   60          RTS              
                                                                          76322
ACC: 02  X: 01  Y: 01  SP: F1          [N]   V   [U]  [B]   D    I    Z    C 
STK: $1EE:  26  0F  FB  (FD)  C5  09  03  84  FF  22  D8  C1  F1
FDFC:   68          PLA              
                                                                          76323
ACC: C5  X: 01  Y: 01  SP: F2          [N]   V   [U]  [B]   D    I    Z    C 
STK: $1EF:  0F  FB  FD  (C5)  09  03  84  FF  22  D8  C1  F1  00
FDFD:   A4 35       LDY $35          0035:  00 F0 FD 1B FD
                                                                          76324
ACC: C5  X: 01  Y: 00  SP: F2           N    V   [U]  [B]   D    I   [Z]   C 
STK: $1EF:  0F  FB  FD  (C5)  09  03  84  FF  22  D8  C1  F1  00
FDFF:   60          RTS              
                                                                          76325
ACC: C5  X: 01  Y: 00  SP: F4           N    V   [U]  [B]   D    I   [Z]   C 
STK: $1F1:  FD  C5  09  (03)  84  FF  22  D8  C1  F1  00  01  01
030A:   E8          INX              
                                                                          76326
ACC: C5  X: 02  Y: 00  SP: F4           N    V   [U]  [B]   D    I    Z    C 
STK: $1F1:  FD  C5  09  (03)  84  FF  22  D8  C1  F1  00  01  01
030B:   D0 F5       BNE $0302        
                                                                          76327
ACC: C5  X: 02  Y: 00  SP: F4           N    V   [U]  [B]   D    I    Z    C 
STK: $1F1:  FD  C5  09  (03)  84  FF  22  D8  C1  F1  00  01  01
0302:   BD 1D 03    LDA $031D,x      031F:  CC CC CF 8D 00
                                                                          76328
ACC: CC  X: 02  Y: 00  SP: F4          [N]   V   [U]  [B]   D    I    Z    C 
STK: $1F1:  FD  C5  09  (03)  84  FF  22  D8  C1  F1  00  01  01
0305:   F0 06       BEQ $030D        
                                                                          76329
ACC: CC  X: 02  Y: 00  SP: F4          [N]   V   [U]  [B]   D    I    Z    C 
STK: $1F1:  FD  C5  09  (03)  84  FF  22  D8  C1  F1  00  01  01
0307:   20 ED FD    JSR $FDED        FDED:  6C 36 00 C9 A0
w @001F4 $01F4 :03 MAIN
w @001F3 $01F3 :09 MAIN
                                                                          76330
ACC: CC  X: 02  Y: 00  SP: F2          [N]   V   [U]  [B]   D    I    Z    C 
STK: $1EF:  0F  FB  FD  (C5)  09  03  84  FF  22  D8  C1  F1  00
FDED:   6C 36 00    JMP ($0036)      0036:  F0 FD 1B FD 00
                                                                          76331
ACC: CC  X: 02  Y: 00  SP: F2          [N]   V   [U]  [B]   D    I    Z    C 
STK: $1EF:  0F  FB  FD  (C5)  09  03  84  FF  22  D8  C1  F1  00
FDF0:   C9 A0       CMP #$A0         
                                                                          76332
ACC: CC  X: 02  Y: 00  SP: F2           N    V   [U]  [B]   D    I    Z   [C]
STK: $1EF:  0F  FB  FD  (C5)  09  03  84  FF  22  D8  C1  F1  00
FDF2:   90 02       BCC $FDF6        
                                                                          76333
ACC: CC  X: 02  Y: 00  SP: F2           N    V   [U]  [B]   D    I    Z   [C]
STK: $1EF:  0F  FB  FD  (C5)  09  03  84  FF  22  D8  C1  F1  00
FDF4:   25 32       AND $32          0032:  FF AA 04 00 F0
                                                                          76334
ACC: CC  X: 02  Y: 00  SP: F2          [N]   V   [U]  [B]   D    I    Z   [C]
STK: $1EF:  0F  FB  FD  (C5)  09  03  84  FF  22  D8  C1  F1  00
FDF6:   84 35       STY $35          0035:  00 F0 FD 1B FD
w @00035 $0035 :00 MAIN
                                                                          76335
ACC: CC  X: 02  Y: 00  SP: F2          [N]   V   [U]  [B]   D    I    Z   [C]
STK: $1EF:  0F  FB  FD  (C5)  09  03  84  FF  22  D8  C1  F1  00
FDF8:   48          PHA              
w @001F2 $01F2 :CC MAIN
                                                                          76336
ACC: CC  X: 02  Y: 00  SP: F1          [N]   V   [U]  [B]   D    I    Z   [C]
STK: $1EE:  26  0F  FB  (FD)  CC  09  03  84  FF  22  D8  C1  F1
FDF9:   20 78 FB    JSR $FB78        FB78:  C9 8D D0 18 AC
w @001F1 $01F1 :FD MAIN
w @001F0 $01F0 :FB MAIN
                                                                          76337
ACC: CC  X: 02  Y: 00  SP: EF          [N]   V   [U]  [B]   D    I    Z   [C]
STK: $1EC:  00  0E  26  (0F)  FB  FD  CC  09  03  84  FF  22  D8
FB78:   C9 8D       CMP #$8D         
                                                                          76338
ACC: CC  X: 02  Y: 00  SP: EF           N    V   [U]  [B]   D    I    Z   [C]
STK: $1EC:  00  0E  26  (0F)  FB  FD  CC  09  03  84  FF  22  D8
FB7A:   D0 18       BNE $FB94        
                                                                          76339
ACC: CC  X: 02  Y: 00  SP: EF           N    V   [U]  [B]   D    I    Z   [C]
STK: $1EC:  00  0E  26  (0F)  FB  FD  CC  09  03  84  FF  22  D8
FB94:   4C FD FB    JMP $FBFD        FBFD:  C9 A0 B0 EF A8
                                                                          76340
ACC: CC  X: 02  Y: 00  SP: EF           N    V   [U]  [B]   D    I    Z   [C]
STK: $1EC:  00  0E  26  (0F)  FB  FD  CC  09  03  84  FF  22  D8
FBFD:   C9 A0       CMP #$A0         
                                                                          76341
ACC: CC  X: 02  Y: 00  SP: EF           N    V   [U]  [B]   D    I    Z   [C]
STK: $1EC:  00  0E  26  (0F)  FB  FD  CC  09  03  84  FF  22  D8
FBFF:   B0 EF       BCS $FBF0        
                                                                          76342
ACC: CC  X: 02  Y: 00  SP: EF           N    V   [U]  [B]   D    I    Z   [C]
STK: $1EC:  00  0E  26  (0F)  FB  FD  CC  09  03  84  FF  22  D8
FBF0:   A4 24       LDY $24          0024:  02 0F 00 00 A8
                                                                          76343
ACC: CC  X: 02  Y: 02  SP: EF           N    V   [U]  [B]   D    I    Z   [C]
STK: $1EC:  00  0E  26  (0F)  FB  FD  CC  09  03  84  FF  22  D8
FBF2:   91 28       STA ($28),y      28: A8 07   07AA:  A0 A0 A0 A0 A0
w @007AA $07AA :CC MAIN
                                                                          76344
ACC: CC  X: 02  Y: 02  SP: EF           N    V   [U]  [B]   D    I    Z   [C]
STK: $1EC:  00  0E  26  (0F)  FB  FD  CC  09  03  84  FF  22  D8
FBF4:   E6 24       INC $24          0024:  02 0F 00 00 A8
w @00024 $0024 :02 MAIN
w @00024 $0024 :03 MAIN
                                                                          76345
ACC: CC  X: 02  Y: 02  SP: EF           N    V   [U]  [B]   D    I    Z   [C]
STK: $1EC:  00  0E  26  (0F)  FB  FD  CC  09  03  84  FF  22  D8
FBF6:   A5 24       LDA $24          0024:  03 0F 00 00 A8
                                                                          76346
ACC: 03  X: 02  Y: 02  SP: EF           N    V   [U]  [B]   D    I    Z   [C]
STK: $1EC:  00  0E  26  (0F)  FB  FD  CC  09  03  84  FF  22  D8
FBF8:   C5 21       CMP $21          0021:  28 00 18 03 0F
                                                                          76347
ACC: 03  X: 02  Y: 02  SP: EF          [N]   V   [U]  [B]   D    I    Z    C 
STK: $1EC:  00  0E  26  (0F)  FB  FD  CC  09  03  84  FF  22  D8
FBFA:   B0 66       BCS $FC62        
                                                                          76348
ACC: 03  X: 02  Y: 02  SP: EF          [N]   V   [U]  [B]   D    I    Z    C 
STK: $1EC:  00  0E  26  (0F)  FB  FD  CC  09  03  84  FF  22  D8
FBFC:   60          RTS              
                                                                          76349
ACC: 03  X: 02  Y: 02  SP: F1          [N]   V   [U]  [B]   D    I    Z    C 
STK: $1EE:  26  0F  FB  (FD)  CC  09  03  84  FF  22  D8  C1  F1
FDFC:   68          PLA              
                                                                          76350
ACC: CC  X: 02  Y: 02  SP: F2          [N]   V   [U]  [B]   D    I    Z    C 
STK: $1EF:  0F  FB  FD  (CC)  09  03  84  FF  22  D8  C1  F1  00
FDFD:   A4 35       LDY $35          0035:  00 F0 FD 1B FD
                                                                          76351
ACC: CC  X: 02  Y: 00  SP: F2           N    V   [U]  [B]   D    I   [Z]   C 
STK: $1EF:  0F  FB  FD  (CC)  09  03  84  FF  22  D8  C1  F1  00
FDFF:   60          RTS              
                                                                          76352
ACC: CC  X: 02  Y: 00  SP: F4           N    V   [U]  [B]   D    I   [Z]   C 
STK: $1F1:  FD  CC  09  (03)  84  FF  22  D8  C1  F1  00  01  01
030A:   E8          INX              
                                                                          76353
ACC: CC  X: 03  Y: 00  SP: F4           N    V   [U]  [B]   D    I    Z    C 
STK: $1F1:  FD  CC  09  (03)  84  FF  22  D8  C1  F1  00  01  01
030B:   D0 F5       BNE $0302        
                                                                          76354
ACC: CC  X: 03  Y: 00  SP: F4           N    V   [U]  [B]   D    I    Z    C 
STK: $1F1:  FD  CC  09  (03)  84  FF  22  D8  C1  F1  00  01  01
0302:   BD 1D 03    LDA $031D,x      0320:  CC CF 8D 00 FF
                                                                          76355
ACC: CC  X: 03  Y: 00  SP: F4          [N]   V   [U]  [B]   D    I    Z    C 
STK: $1F1:  FD  CC  09  (03)  84  FF  22  D8  C1  F1  00  01  01
0305:   F0 06       BEQ $030D        
                                                                          76356
ACC: CC  X: 03  Y: 00  SP: F4          [N]   V   [U]  [B]   D    I    Z    C 
STK: $1F1:  FD  CC  09  (03)  84  FF  22  D8  C1  F1  00  01  01
0307:   20 ED FD    JSR $FDED        FDED:  6C 36 00 C9 A0
w @001F4 $01F4 :03 MAIN
w @001F3 $01F3 :09 MAIN
                                                                          76357
ACC: CC  X: 03  Y: 00  SP: F2          [N]   V   [U]  [B]   D    I    Z    C 
STK: $1EF:  0F  FB  FD  (CC)  09  03  84  FF  22  D8  C1  F1  00
FDED:   6C 36 00    JMP ($0036)      0036:  F0 FD 1B FD 00
                                                                          76358
ACC: CC  X: 03  Y: 00  SP: F2          [N]   V   [U]  [B]   D    I    Z    C 
STK: $1EF:  0F  FB  FD  (CC)  09  03  84  FF  22  D8  C1  F1  00
FDF0:   C9 A0       CMP #$A0         
                                                                          76359
ACC: CC  X: 03  Y: 00  SP: F2           N    V   [U]  [B]   D    I    Z   [C]
STK: $1EF:  0F  FB  FD  (CC)  09  03  84  FF  22  D8  C1  F1  00
FDF2:   90 02       BCC $FDF6        
                                                                          76360
ACC: CC  X: 03  Y: 00  SP: F2           N    V   [U]  [B]   D    I    Z   [C]
STK: $1EF:  0F  FB  FD  (CC)  09  03  84  FF  22  D8  C1  F1  00
FDF4:   25 32       AND $32          0032:  FF AA 04 00 F0
                                                                          76361
ACC: CC  X: 03  Y: 00  SP: F2          [N]   V   [U]  [B]   D    I    Z   [C]
STK: $1EF:  0F  FB  FD  (CC)  09  03  84  FF  22  D8  C1  F1  00
FDF6:   84 35       STY $35          0035:  00 F0 FD 1B FD
w @00035 $0035 :00 MAIN
                                                                          76362
ACC: CC  X: 03  Y: 00  SP: F2          [N]   V   [U]  [B]   D    I    Z   [C]
STK: $1EF:  0F  FB  FD  (CC)  09  03  84  FF  22  D8  C1  F1  00
FDF8:   48          PHA              
w @001F2 $01F2 :CC MAIN
                                                                          76363
ACC: CC  X: 03  Y: 00  SP: F1          [N]   V   [U]  [B]   D    I    Z   [C]
STK: $1EE:  26  0F  FB  (FD)  CC  09  03  84  FF  22  D8  C1  F1
FDF9:   20 78 FB    JSR $FB78        FB78:  C9 8D D0 18 AC
w @001F1 $01F1 :FD MAIN
w @001F0 $01F0 :FB MAIN
                                                                          76364
ACC: CC  X: 03  Y: 00  SP: EF          [N]   V   [U]  [B]   D    I    Z   [C]
STK: $1EC:  00  0E  26  (0F)  FB  FD  CC  09  03  84  FF  22  D8
FB78:   C9 8D       CMP #$8D         
                                                                          76365
ACC: CC  X: 03  Y: 00  SP: EF           N    V   [U]  [B]   D    I    Z   [C]
STK: $1EC:  00  0E  26  (0F)  FB  FD  CC  09  03  84  FF  22  D8
FB7A:   D0 18       BNE $FB94        
                                                                          76366
ACC: CC  X: 03  Y: 00  SP: EF           N    V   [U]  [B]   D    I    Z   [C]
STK: $1EC:  00  0E  26  (0F)  FB  FD  CC  09  03  84  FF  22  D8
FB94:   4C FD FB    JMP $FBFD        FBFD:  C9 A0 B0 EF A8
                                                                          76367
ACC: CC  X: 03  Y: 00  SP: EF           N    V   [U]  [B]   D    I    Z   [C]
STK: $1EC:  00  0E  26  (0F)  FB  FD  CC  09  03  84  FF  22  D8
FBFD:   C9 A0       CMP #$A0         
                                                                          76368
ACC: CC  X: 03  Y: 00  SP: EF           N    V   [U]  [B]   D    I    Z   [C]
STK: $1EC:  00  0E  26  (0F)  FB  FD  CC  09  03  84  FF  22  D8
FBFF:   B0 EF       BCS $FBF0        
                                                                          76369
ACC: CC  X: 03  Y: 00  SP: EF           N    V   [U]  [B]   D    I    Z   [C]
STK: $1EC:  00  0E  26  (0F)  FB  FD  CC  09  03  84  FF  22  D8
FBF0:   A4 24       LDY $24          0024:  03 0F 00 00 A8
                                                                          76370
ACC: CC  X: 03  Y: 03  SP: EF           N    V   [U]  [B]   D    I    Z   [C]
STK: $1EC:  00  0E  26  (0F)  FB  FD  CC  09  03  84  FF  22  D8
FBF2:   91 28       STA ($28),y      28: A8 07   07AB:  A0 A0 A0 A0 A0
w @007AB $07AB :CC MAIN
                                                                          76371
ACC: CC  X: 03  Y: 03  SP: EF           N    V   [U]  [B]   D    I    Z   [C]
STK: $1EC:  00  0E  26  (0F)  FB  FD  CC  09  03  84  FF  22  D8
FBF4:   E6 24       INC $24          0024:  03 0F 00 00 A8
w @00024 $0024 :03 MAIN
w @00024 $0024 :04 MAIN
                                                                          76372
ACC: CC  X: 03  Y: 03  SP: EF           N    V   [U]  [B]   D    I    Z   [C]
STK: $1EC:  00  0E  26  (0F)  FB  FD  CC  09  03  84  FF  22  D8
FBF6:   A5 24       LDA $24          0024:  04 0F 00 00 A8
                                                                          76373
ACC: 04  X: 03  Y: 03  SP: EF           N    V   [U]  [B]   D    I    Z   [C]
STK: $1EC:  00  0E  26  (0F)  FB  FD  CC  09  03  84  FF  22  D8
FBF8:   C5 21       CMP $21          0021:  28 00 18 04 0F
                                                                          76374
ACC: 04  X: 03  Y: 03  SP: EF          [N]   V   [U]  [B]   D    I    Z    C 
STK: $1EC:  00  0E  26  (0F)  FB  FD  CC  09  03  84  FF  22  D8
FBFA:   B0 66       BCS $FC62        
                                                                          76375
ACC: 04  X: 03  Y: 03  SP: EF          [N]   V   [U]  [B]   D    I    Z    C 
STK: $1EC:  00  0E  26  (0F)  FB  FD  CC  09  03  84  FF  22  D8
FBFC:   60          RTS              
                                                                          76376
ACC: 04  X: 03  Y: 03  SP: F1          [N]   V   [U]  [B]   D    I    Z    C 
STK: $1EE:  26  0F  FB  (FD)  CC  09  03  84  FF  22  D8  C1  F1
FDFC:   68          PLA              
                                                                          76377
ACC: CC  X: 03  Y: 03  SP: F2          [N]   V   [U]  [B]   D    I    Z    C 
STK: $1EF:  0F  FB  FD  (CC)  09  03  84  FF  22  D8  C1  F1  00
FDFD:   A4 35       LDY $35          0035:  00 F0 FD 1B FD
                                                                          76378
ACC: CC  X: 03  Y: 00  SP: F2           N    V   [U]  [B]   D    I   [Z]   C 
STK: $1EF:  0F  FB  FD  (CC)  09  03  84  FF  22  D8  C1  F1  00
FDFF:   60          RTS              
                                                                          76379
ACC: CC  X: 03  Y: 00  SP: F4           N    V   [U]  [B]   D    I   [Z]   C 
STK: $1F1:  FD  CC  09  (03)  84  FF  22  D8  C1  F1  00  01  01
030A:   E8          INX              
                                                                          76380
ACC: CC  X: 04  Y: 00  SP: F4           N    V   [U]  [B]   D    I    Z    C 
STK: $1F1:  FD  CC  09  (03)  84  FF  22  D8  C1  F1  00  01  01
030B:   D0 F5       BNE $0302        
                                                                          76381
ACC: CC  X: 04  Y: 00  SP: F4           N    V   [U]  [B]   D    I    Z    C 
STK: $1F1:  FD  CC  09  (03)  84  FF  22  D8  C1  F1  00  01  01
0302:   BD 1D 03    LDA $031D,x      0321:  CF 8D 00 FF FF
                                                                          76382
ACC: CF  X: 04  Y: 00  SP: F4          [N]   V   [U]  [B]   D    I    Z    C 
STK: $1F1:  FD  CC  09  (03)  84  FF  22  D8  C1  F1  00  01  01
0305:   F0 06       BEQ $030D        
                                                                          76383
ACC: CF  X: 04  Y: 00  SP: F4          [N]   V   [U]  [B]   D    I    Z    C 
STK: $1F1:  FD  CC  09  (03)  84  FF  22  D8  C1  F1  00  01  01
0307:   20 ED FD    JSR $FDED        FDED:  6C 36 00 C9 A0
w @001F4 $01F4 :03 MAIN
w @001F3 $01F3 :09 MAIN
                                                                          76384
ACC: CF  X: 04  Y: 00  SP: F2          [N]   V   [U]  [B]   D    I    Z    C 
STK: $1EF:  0F  FB  FD  (CC)  09  03  84  FF  22  D8  C1  F1  00
FDED:   6C 36 00    JMP ($0036)      0036:  F0 FD 1B FD 00
                                                                          76385
ACC: CF  X: 04  Y: 00  SP: F2          [N]   V   [U]  [B]   D    I    Z    C 
STK: $1EF:  0F  FB  FD  (CC)  09  03  84  FF  22  D8  C1  F1  00
FDF0:   C9 A0       CMP #$A0         
                                                                          76386
ACC: CF  X: 04  Y: 00  SP: F2           N    V   [U]  [B]   D    I    Z   [C]
STK: $1EF:  0F  FB  FD  (CC)  09  03  84  FF  22  D8  C1  F1  00
FDF2:   90 02       BCC $FDF6        
                                                                          76387
ACC: CF  X: 04  Y: 00  SP: F2           N    V   [U]  [B]   D    I    Z   [C]
STK: $1EF:  0F  FB  FD  (CC)  09  03  84  FF  22  D8  C1  F1  00
FDF4:   25 32       AND $32          0032:  FF AA 04 00 F0
                                                                          76388
ACC: CF  X: 04  Y: 00  SP: F2          [N]   V   [U]  [B]   D    I    Z   [C]
STK: $1EF:  0F  FB  FD  (CC)  09  03  84  FF  22  D8  C1  F1  00
FDF6:   84 35       STY $35          0035:  00 F0 FD 1B FD
w @00035 $0035 :00 MAIN
                                                                          76389
ACC: CF  X: 04  Y: 00  SP: F2          [N]   V   [U]  [B]   D    I    Z   [C]
STK: $1EF:  0F  FB  FD  (CC)  09  03  84  FF  22  D8  C1  F1  00
FDF8:   48          PHA              
w @001F2 $01F2 :CF MAIN
                                                                          76390
ACC: CF  X: 04  Y: 00  SP: F1          [N]   V   [U]  [B]   D    I    Z   [C]
STK: $1EE:  26  0F  FB  (FD)  CF  09  03  84  FF  22  D8  C1  F1
FDF9:   20 78 FB    JSR $FB78        FB78:  C9 8D D0 18 AC
w @001F1 $01F1 :FD MAIN
w @001F0 $01F0 :FB MAIN
                                                                          76391
ACC: CF  X: 04  Y: 00  SP: EF          [N]   V   [U]  [B]   D    I    Z   [C]
STK: $1EC:  00  0E  26  (0F)  FB  FD  CF  09  03  84  FF  22  D8
FB78:   C9 8D       CMP #$8D         
                                                                          76392
ACC: CF  X: 04  Y: 00  SP: EF           N    V   [U]  [B]   D    I    Z   [C]
STK: $1EC:  00  0E  26  (0F)  FB  FD  CF  09  03  84  FF  22  D8
FB7A:   D0 18       BNE $FB94        
                                                                          76393
ACC: CF  X: 04  Y: 00  SP: EF           N    V   [U]  [B]   D    I    Z   [C]
STK: $1EC:  00  0E  26  (0F)  FB  FD  CF  09  03  84  FF  22  D8
FB94:   4C FD FB    JMP $FBFD        FBFD:  C9 A0 B0 EF A8
                                                                          76394
ACC: CF  X: 04  Y: 00  SP: EF           N    V   [U]  [B]   D    I    Z   [C]
STK: $1EC:  00  0E  26  (0F)  FB  FD  CF  09  03  84  FF  22  D8
FBFD:   C9 A0       CMP #$A0         
                                                                          76395
ACC: CF  X: 04  Y: 00  SP: EF           N    V   [U]  [B]   D    I    Z   [C]
STK: $1EC:  00  0E  26  (0F)  FB  FD  CF  09  03  84  FF  22  D8
FBFF:   B0 EF       BCS $FBF0        
                                                                          76396
ACC: CF  X: 04  Y: 00  SP: EF           N    V   [U]  [B]   D    I    Z   [C]
STK: $1EC:  00  0E  26  (0F)  FB  FD  CF  09  03  84  FF  22  D8
FBF0:   A4 24       LDY $24          0024:  04 0F 00 00 A8
                                                                          76397
ACC: CF  X: 04  Y: 04  SP: EF           N    V   [U]  [B]   D    I    Z   [C]
STK: $1EC:  00  0E  26  (0F)  FB  FD  CF  09  03  84  FF  22  D8
FBF2:   91 28       STA ($28),y      28: A8 07   07AC:  A0 A0 A0 A0 A0
w @007AC $07AC :CF MAIN
                                                                          76398
ACC: CF  X: 04  Y: 04  SP: EF           N    V   [U]  [B]   D    I    Z   [C]
STK: $1EC:  00  0E  26  (0F)  FB  FD  CF  09  03  84  FF  22  D8
FBF4:   E6 24       INC $24          0024:  04 0F 00 00 A8
w @00024 $0024 :04 MAIN
w @00024 $0024 :05 MAIN
                                                                          76399
ACC: CF  X: 04  Y: 04  SP: EF           N    V   [U]  [B]   D    I    Z   [C]
STK: $1EC:  00  0E  26  (0F)  FB  FD  CF  09  03  84  FF  22  D8
FBF6:   A5 24       LDA $24          0024:  05 0F 00 00 A8
                                                                          76400
ACC: 05  X: 04  Y: 04  SP: EF           N    V   [U]  [B]   D    I    Z   [C]
STK: $1EC:  00  0E  26  (0F)  FB  FD  CF  09  03  84  FF  22  D8
FBF8:   C5 21       CMP $21          0021:  28 00 18 05 0F
                                                                          76401
ACC: 05  X: 04  Y: 04  SP: EF          [N]   V   [U]  [B]   D    I    Z    C 
STK: $1EC:  00  0E  26  (0F)  FB  FD  CF  09  03  84  FF  22  D8
FBFA:   B0 66       BCS $FC62        
                                                                          76402
ACC: 05  X: 04  Y: 04  SP: EF          [N]   V   [U]  [B]   D    I    Z    C 
STK: $1EC:  00  0E  26  (0F)  FB  FD  CF  09  03  84  FF  22  D8
FBFC:   60          RTS              
                                                                          76403
ACC: 05  X: 04  Y: 04  SP: F1          [N]   V   [U]  [B]   D    I    Z    C 
STK: $1EE:  26  0F  FB  (FD)  CF  09  03  84  FF  22  D8  C1  F1
FDFC:   68          PLA              
                                                                          76404
ACC: CF  X: 04  Y: 04  SP: F2          [N]   V   [U]  [B]   D    I    Z    C 
STK: $1EF:  0F  FB  FD  (CF)  09  03  84  FF  22  D8  C1  F1  00
FDFD:   A4 35       LDY $35          0035:  00 F0 FD 1B FD
                                                                          76405
ACC: CF  X: 04  Y: 00  SP: F2           N    V   [U]  [B]   D    I   [Z]   C 
STK: $1EF:  0F  FB  FD  (CF)  09  03  84  FF  22  D8  C1  F1  00
FDFF:   60          RTS              
                                                                          76406
ACC: CF  X: 04  Y: 00  SP: F4           N    V   [U]  [B]   D    I   [Z]   C 
STK: $1F1:  FD  CF  09  (03)  84  FF  22  D8  C1  F1  00  01  01
030A:   E8          INX              
                                                                          76407
ACC: CF  X: 05  Y: 00  SP: F4           N    V   [U]  [B]   D    I    Z    C 
STK: $1F1:  FD  CF  09  (03)  84  FF  22  D8  C1  F1  00  01  01
030B:   D0 F5       BNE $0302        
                                                                          76408
ACC: CF  X: 05  Y: 00  SP: F4           N    V   [U]  [B]   D    I    Z    C 
STK: $1F1:  FD  CF  09  (03)  84  FF  22  D8  C1  F1  00  01  01
0302:   BD 1D 03    LDA $031D,x      0322:  8D 00 FF FF 00
                                                                          76409
ACC: 8D  X: 05  Y: 00  SP: F4          [N]   V   [U]  [B]   D    I    Z    C 
STK: $1F1:  FD  CF  09  (03)  84  FF  22  D8  C1  F1  00  01  01
0305:   F0 06       BEQ $030D        
                                                                          76410
ACC: 8D  X: 05  Y: 00  SP: F4          [N]   V   [U]  [B]   D    I    Z    C 
STK: $1F1:  FD  CF  09  (03)  84  FF  22  D8  C1  F1  00  01  01
0307:   20 ED FD    JSR $FDED        FDED:  6C 36 00 C9 A0
w @001F4 $01F4 :03 MAIN
w @001F3 $01F3 :09 MAIN
                                                                          76411
ACC: 8D  X: 05  Y: 00  SP: F2          [N]   V   [U]  [B]   D    I    Z    C 
STK: $1EF:  0F  FB  FD  (CF)  09  03  84  FF  22  D8  C1  F1  00
FDED:   6C 36 00    JMP ($0036)      0036:  F0 FD 1B FD 00
                                                                          76412
ACC: 8D  X: 05  Y: 00  SP: F2          [N]   V   [U]  [B]   D    I    Z    C 
STK: $1EF:  0F  FB  FD  (CF)  09  03  84  FF  22  D8  C1  F1  00
FDF0:   C9 A0       CMP #$A0         
                                                                          76413
ACC: 8D  X: 05  Y: 00  SP: F2          [N]   V   [U]  [B]   D    I    Z    C 
STK: $1EF:  0F  FB  FD  (CF)  09  03  84  FF  22  D8  C1  F1  00
FDF2:   90 02       BCC $FDF6        
                                                                          76414
ACC: 8D  X: 05  Y: 00  SP: F2          [N]   V   [U]  [B]   D    I    Z    C 
STK: $1EF:  0F  FB  FD  (CF)  09  03  84  FF  22  D8  C1  F1  00
FDF6:   84 35       STY $35          0035:  00 F0 FD 1B FD
w @00035 $0035 :00 MAIN
                                                                          76415
ACC: 8D  X: 05  Y: 00  SP: F2          [N]   V   [U]  [B]   D    I    Z    C 
STK: $1EF:  0F  FB  FD  (CF)  09  03  84  FF  22  D8  C1  F1  00
FDF8:   48          PHA              
w @001F2 $01F2 :8D MAIN
                                                                          76416
ACC: 8D  X: 05  Y: 00  SP: F1          [N]   V   [U]  [B]   D    I    Z    C 
STK: $1EE:  26  0F  FB  (FD)  8D  09  03  84  FF  22  D8  C1  F1
FDF9:   20 78 FB    JSR $FB78        FB78:  C9 8D D0 18 AC
w @001F1 $01F1 :FD MAIN
w @001F0 $01F0 :FB MAIN
                                                                          76417
ACC: 8D  X: 05  Y: 00  SP: EF          [N]   V   [U]  [B]   D    I    Z    C 
STK: $1EC:  00  0E  26  (0F)  FB  FD  8D  09  03  84  FF  22  D8
FB78:   C9 8D       CMP #$8D         
                                                                          76418
ACC: 8D  X: 05  Y: 00  SP: EF           N    V   [U]  [B]   D    I   [Z]  [C]
STK: $1EC:  00  0E  26  (0F)  FB  FD  8D  09  03  84  FF  22  D8
FB7A:   D0 18       BNE $FB94        
                                                                          76419
ACC: 8D  X: 05  Y: 00  SP: EF           N    V   [U]  [B]   D    I   [Z]  [C]
STK: $1EC:  00  0E  26  (0F)  FB  FD  8D  09  03  84  FF  22  D8
FB7C:   AC 00 C0    LDY $C000        C000:  FF FF 00 00 FF
                                                                          76420
ACC: 8D  X: 05  Y: 8D  SP: EF          [N]   V   [U]  [B]   D    I    Z   [C]
STK: $1EC:  00  0E  26  (0F)  FB  FD  8D  09  03  84  FF  22  D8
FB7F:   10 13       BPL $FB94        
                                                                          76421
ACC: 8D  X: 05  Y: 8D  SP: EF          [N]   V   [U]  [B]   D    I    Z   [C]
STK: $1EC:  00  0E  26  (0F)  FB  FD  8D  09  03  84  FF  22  D8
FB81:   C0 93       CPY #$93         
                                                                          76422
ACC: 8D  X: 05  Y: 8D  SP: EF          [N]   V   [U]  [B]   D    I    Z    C 
STK: $1EC:  00  0E  26  (0F)  FB  FD  8D  09  03  84  FF  22  D8
FB83:   D0 0F       BNE $FB94        
                                                                          76423
ACC: 8D  X: 05  Y: 8D  SP: EF          [N]   V   [U]  [B]   D    I    Z    C 
STK: $1EC:  00  0E  26  (0F)  FB  FD  8D  09  03  84  FF  22  D8
FB94:   4C FD FB    JMP $FBFD        FBFD:  C9 A0 B0 EF A8
                                                                          76424
ACC: 8D  X: 05  Y: 8D  SP: EF          [N]   V   [U]  [B]   D    I    Z    C 
STK: $1EC:  00  0E  26  (0F)  FB  FD  8D  09  03  84  FF  22  D8
FBFD:   C9 A0       CMP #$A0         
                                                                          76425
ACC: 8D  X: 05  Y: 8D  SP: EF          [N]   V   [U]  [B]   D    I    Z    C 
STK: $1EC:  00  0E  26  (0F)  FB  FD  8D  09  03  84  FF  22  D8
FBFF:   B0 EF       BCS $FBF0        
                                                                          76426
ACC: 8D  X: 05  Y: 8D  SP: EF          [N]   V   [U]  [B]   D    I    Z    C 
STK: $1EC:  00  0E  26  (0F)  FB  FD  8D  09  03  84  FF  22  D8
FC01:   A8          TAY              
                                                                          76427
ACC: 8D  X: 05  Y: 8D  SP: EF          [N]   V   [U]  [B]   D    I    Z    C 
STK: $1EC:  00  0E  26  (0F)  FB  FD  8D  09  03  84  FF  22  D8
FC02:   10 EC       BPL $FBF0        
                                                                          76428
ACC: 8D  X: 05  Y: 8D  SP: EF          [N]   V   [U]  [B]   D    I    Z    C 
STK: $1EC:  00  0E  26  (0F)  FB  FD  8D  09  03  84  FF  22  D8
FC04:   C9 8D       CMP #$8D         
                                                                          76429
ACC: 8D  X: 05  Y: 8D  SP: EF           N    V   [U]  [B]   D    I   [Z]  [C]
STK: $1EC:  00  0E  26  (0F)  FB  FD  8D  09  03  84  FF  22  D8
FC06:   F0 5A       BEQ $FC62        
                                                                          76430
ACC: 8D  X: 05  Y: 8D  SP: EF           N    V   [U]  [B]   D    I   [Z]  [C]
STK: $1EC:  00  0E  26  (0F)  FB  FD  8D  09  03  84  FF  22  D8
FC62:   A9 00       LDA #$00         
                                                                          76431
ACC: 00  X: 05  Y: 8D  SP: EF           N    V   [U]  [B]   D    I   [Z]  [C]
STK: $1EC:  00  0E  26  (0F)  FB  FD  8D  09  03  84  FF  22  D8
FC64:   85 24       STA $24          0024:  05 0F 00 00 A8
w @00024 $0024 :00 MAIN
                                                                          76432
ACC: 00  X: 05  Y: 8D  SP: EF           N    V   [U]  [B]   D    I   [Z]  [C]
STK: $1EC:  00  0E  26  (0F)  FB  FD  8D  09  03  84  FF  22  D8
FC66:   E6 25       INC $25          0025:  0F 00 00 A8 07
w @00025 $0025 :0F MAIN
w @00025 $0025 :10 MAIN
                                                                          76433
ACC: 00  X: 05  Y: 8D  SP: EF           N    V   [U]  [B]   D    I    Z   [C]
STK: $1EC:  00  0E  26  (0F)  FB  FD  8D  09  03  84  FF  22  D8
FC68:   A5 25       LDA $25          0025:  10 00 00 A8 07
                                                                          76434
ACC: 10  X: 05  Y: 8D  SP: EF           N    V   [U]  [B]   D    I    Z   [C]
STK: $1EC:  00  0E  26  (0F)  FB  FD  8D  09  03  84  FF  22  D8
FC6A:   C5 23       CMP $23          0023:  18 00 10 00 00
                                                                          76435
ACC: 10  X: 05  Y: 8D  SP: EF          [N]   V   [U]  [B]   D    I    Z    C 
STK: $1EC:  00  0E  26  (0F)  FB  FD  8D  09  03  84  FF  22  D8
FC6C:   90 B6       BCC $FC24        
                                                                          76436
ACC: 10  X: 05  Y: 8D  SP: EF          [N]   V   [U]  [B]   D    I    Z    C 
STK: $1EC:  00  0E  26  (0F)  FB  FD  8D  09  03  84  FF  22  D8
FC24:   20 C1 FB    JSR $FBC1        FBC1:  48 4A 29 03 09
w @001EF $01EF :FC MAIN
w @001EE $01EE :26 MAIN
                                                                          76437
ACC: 10  X: 05  Y: 8D  SP: ED          [N]   V   [U]  [B]   D    I    Z    C 
STK: $1EA:  01  00  00  (0E)  26  FC  FB  FD  8D  09  03  84  FF
FBC1:   48          PHA              
w @001ED $01ED :10 MAIN
                                                                          76438
ACC: 10  X: 05  Y: 8D  SP: EC          [N]   V   [U]  [B]   D    I    Z    C 
STK: $1E9:  D1  01  00  (00)  10  26  FC  FB  FD  8D  09  03  84
FBC2:   4A          LSR              
                                                                          76439
ACC: 08  X: 05  Y: 8D  SP: EC           N    V   [U]  [B]   D    I    Z    C 
STK: $1E9:  D1  01  00  (00)  10  26  FC  FB  FD  8D  09  03  84
FBC3:   29 03       AND #$03         
                                                                          76440
ACC: 00  X: 05  Y: 8D  SP: EC           N    V   [U]  [B]   D    I   [Z]   C 
STK: $1E9:  D1  01  00  (00)  10  26  FC  FB  FD  8D  09  03  84
FBC5:   09 04       ORA #$04         
                                                                          76441
ACC: 04  X: 05  Y: 8D  SP: EC           N    V   [U]  [B]   D    I    Z    C 
STK: $1E9:  D1  01  00  (00)  10  26  FC  FB  FD  8D  09  03  84
FBC7:   85 29       STA $29          0029:  07 00 00 FF FF
w @00029 $0029 :04 MAIN
                                                                          76442
ACC: 04  X: 05  Y: 8D  SP: EC           N    V   [U]  [B]   D    I    Z    C 
STK: $1E9:  D1  01  00  (00)  10  26  FC  FB  FD  8D  09  03  84
FBC9:   68          PLA              
                                                                          76443
ACC: 10  X: 05  Y: 8D  SP: ED           N    V   [U]  [B]   D    I    Z    C 
STK: $1EA:  01  00  00  (10)  26  FC  FB  FD  8D  09  03  84  FF
FBCA:   29 18       AND #$18         
                                                                          76444
ACC: 10  X: 05  Y: 8D  SP: ED           N    V   [U]  [B]   D    I    Z    C 
STK: $1EA:  01  00  00  (10)  26  FC  FB  FD  8D  09  03  84  FF
FBCC:   90 02       BCC $FBD0        
                                                                          76445
ACC: 10  X: 05  Y: 8D  SP: ED           N    V   [U]  [B]   D    I    Z    C 
STK: $1EA:  01  00  00  (10)  26  FC  FB  FD  8D  09  03  84  FF
FBD0:   85 28       STA $28          0028:  A8 04 00 00 FF
w @00028 $0028 :10 MAIN
                                                                          76446
ACC: 10  X: 05  Y: 8D  SP: ED           N    V   [U]  [B]   D    I    Z    C 
STK: $1EA:  01  00  00  (10)  26  FC  FB  FD  8D  09  03  84  FF
FBD2:   0A          ASL              
                                                                          76447
ACC: 20  X: 05  Y: 8D  SP: ED           N    V   [U]  [B]   D    I    Z    C 
STK: $1EA:  01  00  00  (10)  26  FC  FB  FD  8D  09  03  84  FF
FBD3:   0A          ASL              
                                                                          76448
ACC: 40  X: 05  Y: 8D  SP: ED           N    V   [U]  [B]   D    I    Z    C 
STK: $1EA:  01  00  00  (10)  26  FC  FB  FD  8D  09  03  84  FF
FBD4:   05 28       ORA $28          0028:  10 04 00 00 FF
                                                                          76449
ACC: 50  X: 05  Y: 8D  SP: ED           N    V   [U]  [B]   D    I    Z    C 
STK: $1EA:  01  00  00  (10)  26  FC  FB  FD  8D  09  03  84  FF
FBD6:   85 28       STA $28          0028:  10 04 00 00 FF
w @00028 $0028 :50 MAIN
                                                                          76450
ACC: 50  X: 05  Y: 8D  SP: ED           N    V   [U]  [B]   D    I    Z    C 
STK: $1EA:  01  00  00  (10)  26  FC  FB  FD  8D  09  03  84  FF
FBD8:   60          RTS              
                                                                          76451
ACC: 50  X: 05  Y: 8D  SP: EF           N    V   [U]  [B]   D    I    Z    C 
STK: $1EC:  00  10  26  (FC)  FB  FD  8D  09  03  84  FF  22  D8
FC27:   65 20       ADC $20          0020:  00 28 00 18 00
                                                                          76452
ACC: 50  X: 05  Y: 8D  SP: EF           N    V   [U]  [B]   D    I    Z    C 
STK: $1EC:  00  10  26  (FC)  FB  FD  8D  09  03  84  FF  22  D8
FC29:   85 28       STA $28          0028:  50 04 00 00 FF
w @00028 $0028 :50 MAIN
                                                                          76453
ACC: 50  X: 05  Y: 8D  SP: EF           N    V   [U]  [B]   D    I    Z    C 
STK: $1EC:  00  10  26  (FC)  FB  FD  8D  09  03  84  FF  22  D8
FC2B:   60          RTS              
                                                                          76454
ACC: 50  X: 05  Y: 8D  SP: F1           N    V   [U]  [B]   D    I    Z    C 
STK: $1EE:  26  FC  FB  (FD)  8D  09  03  84  FF  22  D8  C1  F1
FDFC:   68          PLA              
                                                                          76455
ACC: 8D  X: 05  Y: 8D  SP: F2          [N]   V   [U]  [B]   D    I    Z    C 
STK: $1EF:  FC  FB  FD  (8D)  09  03  84  FF  22  D8  C1  F1  00
FDFD:   A4 35       LDY $35          0035:  00 F0 FD 1B FD
                                                                          76456
ACC: 8D  X: 05  Y: 00  SP: F2           N    V   [U]  [B]   D    I   [Z]   C 
STK: $1EF:  FC  FB  FD  (8D)  09  03  84  FF  22  D8  C1  F1  00
FDFF:   60          RTS              
                                                                          76457
ACC: 8D  X: 05  Y: 00  SP: F4           N    V   [U]  [B]   D    I   [Z]   C 
STK: $1F1:  FD  8D  09  (03)  84  FF  22  D8  C1  F1  00  01  01
030A:   E8          INX              
                                                                          76458
ACC: 8D  X: 06  Y: 00  SP: F4           N    V   [U]  [B]   D    I    Z    C 
STK: $1F1:  FD  8D  09  (03)  84  FF  22  D8  C1  F1  00  01  01
030B:   D0 F5       BNE $0302        
                                                                          76459
ACC: 8D  X: 06  Y: 00  SP: F4           N    V   [U]  [B]   D    I    Z    C 
STK: $1F1:  FD  8D  09  (03)  84  FF  22  D8  C1  F1  00  01  01
0302:   BD 1D 03    LDA $031D,x      0323:  00 FF FF 00 00
                                                                          76460
ACC: 00  X: 06  Y: 00  SP: F4           N    V   [U]  [B]   D    I   [Z]   C 
STK: $1F1:  FD  8D  09  (03)  84  FF  22  D8  C1  F1  00  01  01
0305:   F0 06       BEQ $030D        
                                                                          76461
ACC: 00  X: 06  Y: 00  SP: F4           N    V   [U]  [B]   D    I   [Z]   C 
STK: $1F1:  FD  8D  09  (03)  84  FF  22  D8  C1  F1  00  01  01
030D:   A9 00       LDA #$00         
                                                                          76462
ACC: 00  X: 06  Y: 00  SP: F4           N    V   [U]  [B]   D    I   [Z]   C 
STK: $1F1:  FD  8D  09  (03)  84  FF  22  D8  C1  F1  00  01  01
030F:   A2 03       LDX #$03         
                                                                          76463
ACC: 00  X: 03  Y: 00  SP: F4           N    V   [U]  [B]   D    I    Z    C 
STK: $1F1:  FD  8D  09  (03)  84  FF  22  D8  C1  F1  00  01  01
0311:   A0 1C       LDY #$1C         
                                                                          76464
ACC: 00  X: 03  Y: 1C  SP: F4           N    V   [U]  [B]   D    I    Z    C 
STK: $1F1:  FD  8D  09  (03)  84  FF  22  D8  C1  F1  00  01  01
0313:   84 1A       STY $1A          001A:  00 00 FF FF 00
w @0001A $001A :1C MAIN
                                                                          76465
ACC: 00  X: 03  Y: 1C  SP: F4           N    V   [U]  [B]   D    I    Z    C 
STK: $1F1:  FD  8D  09  (03)  84  FF  22  D8  C1  F1  00  01  01
0315:   86 1B       STX $1B          001B:  00 FF FF 00 00
w @0001B $001B :03 MAIN
                                                                          76466
ACC: 00  X: 03  Y: 1C  SP: F4           N    V   [U]  [B]   D    I    Z    C 
STK: $1F1:  FD  8D  09  (03)  84  FF  22  D8  C1  F1  00  01  01
0317:   92          ???              
